; Function Attrs: null_pointer_is_valid sspstrong uwtable
define internal void @dissect_lsp_mt_is_reachability_clv(ptr noundef %0, ptr noundef %1, ptr noundef %2, i32 noundef %3, ptr readnone captures(none) %4, i32 noundef %5) #0 {
  %7 = icmp slt i32 %5, 2
  br i1 %7, label %8, label %10

8:                                                ; preds = %6
  %9 = tail call ptr (ptr, ptr, ptr, ptr, i32, i32, ptr, ...) @proto_tree_add_expert_format(ptr noundef %2, ptr noundef %1, ptr noundef nonnull @ei_isis_lsp_short_clv, ptr noundef %0, i32 noundef %3, i32 noundef -1, ptr noundef nonnull @.str.928, i32 noundef %5, i32 noundef 2)
  br label %17

10:                                               ; preds = %6
  %11 = load i32, ptr @hf_isis_lsp_mt_id_reserved, align 4
  %12 = tail call ptr @proto_tree_add_item(ptr noundef %2, i32 noundef %11, ptr noundef %0, i32 noundef %3, i32 noundef 2, i32 noundef 0)
  %13 = load i32, ptr @hf_isis_lsp_mt_id, align 4
  %14 = tail call ptr @proto_tree_add_item(ptr noundef %2, i32 noundef %13, ptr noundef %0, i32 noundef %3, i32 noundef 2, i32 noundef 0)
  %15 = add i32 %3, 2
  %16 = add nsw i32 %5, -2
  tail call void @dissect_lsp_ext_is_reachability_clv(ptr noundef %0, ptr noundef %1, ptr noundef %2, i32 noundef %15, ptr poison, i32 noundef %16)
  br label %17

17:                                               ; preds = %10, %8
  ret void
}